target datalayout = "e-m:e-p270:32:32-p271:32:32-p272:64:64-i64:64-i128:128-f80:128-n8:16:32:64-S128"
target triple = "x86_64-pc-linux-gnu"

%struct._lv_font_t = type { ptr, ptr, ptr, i32, i32, i8, i8, i8, ptr, ptr, ptr }
%struct.lv_color_t = type { i8, i8, i8 }
%struct.lv_draw_letter_dsc_t = type { %struct.lv_draw_dsc_base_t, i32, ptr, %struct.lv_color_t, i32, i32, i32, i32, i32, %struct.lv_point_t, i8, i8 }
%struct.lv_draw_dsc_base_t = type { ptr, i32, i32, i32, ptr, i64, ptr }
%struct.lv_point_t = type { i32, i32 }
%struct._lv_draw_task_t = type { ptr, i32, %struct.lv_area_t, %struct.lv_area_t, %struct.lv_area_t, %struct.lv_area_t, ptr, ptr, i32, ptr, i8, i8 }
%struct.lv_area_t = type { i32, i32, i32, i32 }
%struct.lv_font_glyph_dsc_t = type { ptr, i16, i16, i16, i16, i16, i32, i8, %union.anon, ptr }
%union.anon = type { ptr }

; Function Attrs: nounwind uwtable
define void @lv_draw_letter(ptr noundef %0, ptr noundef %1, ptr noundef %2) #0 {
  %4 = alloca ptr, align 8
  %5 = alloca ptr, align 8
  %6 = alloca ptr, align 8
  %7 = alloca ptr, align 8
  %8 = alloca %struct.lv_font_glyph_dsc_t, align 8
  %9 = alloca %struct.lv_area_t, align 4
  %10 = alloca ptr, align 8
  store ptr %0, ptr %4, align 8, !tbaa !44
  store ptr %1, ptr %5, align 8, !tbaa !3
  store ptr %2, ptr %6, align 8, !tbaa !3
  %11 = load ptr, ptr %5, align 8, !tbaa !3
  %12 = getelementptr inbounds nuw %struct.lv_draw_letter_dsc_t, ptr %11, i32 0, i32 10
  %13 = load i8, ptr %12, align 8, !tbaa !7
  %14 = zext i8 %13 to i32
  %15 = icmp sle i32 %14, 2
  br i1 %15, label %16, label %17

16:                                               ; preds = %3
  br label %112

17:                                               ; preds = %3
  %18 = load ptr, ptr %5, align 8, !tbaa !3
  %19 = getelementptr inbounds nuw %struct.lv_draw_letter_dsc_t, ptr %18, i32 0, i32 2
  %20 = load ptr, ptr %19, align 8, !tbaa !19
  %21 = icmp eq ptr %20, null
  br i1 %21, label %22, label %25

22:                                               ; preds = %17
  br label %23

23:                                               ; preds = %22
  br label %24

24:                                               ; preds = %23
  br label %112

25:                                               ; preds = %17
  call void @llvm.lifetime.start.p0(i64 8, ptr %7) #5
  %26 = load ptr, ptr %5, align 8, !tbaa !3
  %27 = getelementptr inbounds nuw %struct.lv_draw_letter_dsc_t, ptr %26, i32 0, i32 2
  %28 = load ptr, ptr %27, align 8, !tbaa !19
  store ptr %28, ptr %7, align 8, !tbaa !59
  call void @llvm.lifetime.start.p0(i64 48, ptr %8) #5
  %29 = load ptr, ptr %7, align 8, !tbaa !59
  %30 = load ptr, ptr %5, align 8, !tbaa !3
  %31 = getelementptr inbounds nuw %struct.lv_draw_letter_dsc_t, ptr %30, i32 0, i32 1
  %32 = load i32, ptr %31, align 8, !tbaa !60
  %33 = call zeroext i1 @lv_font_get_glyph_dsc(ptr noundef %29, ptr noundef %8, i32 noundef %32, i32 noundef 0)
  %34 = getelementptr inbounds nuw %struct.lv_font_glyph_dsc_t, ptr %8, i32 0, i32 0
  %35 = load ptr, ptr %34, align 8, !tbaa !56
  %36 = icmp ne ptr %35, null
  br i1 %36, label %37, label %40

37:                                               ; preds = %25
  %38 = getelementptr inbounds nuw %struct.lv_font_glyph_dsc_t, ptr %8, i32 0, i32 0
  %39 = load ptr, ptr %38, align 8, !tbaa !56
  br label %44

40:                                               ; preds = %25
  %41 = load ptr, ptr %5, align 8, !tbaa !3
  %42 = getelementptr inbounds nuw %struct.lv_draw_letter_dsc_t, ptr %41, i32 0, i32 2
  %43 = load ptr, ptr %42, align 8, !tbaa !19
  br label %44

44:                                               ; preds = %40, %37
  %45 = phi ptr [ %39, %37 ], [ %43, %40 ]
  store ptr %45, ptr %7, align 8, !tbaa !59
  call void @llvm.lifetime.start.p0(i64 16, ptr %9) #5
  %46 = load ptr, ptr %6, align 8, !tbaa !3
  %47 = getelementptr inbounds nuw %struct.lv_point_t, ptr %46, i32 0, i32 0
  %48 = load i32, ptr %47, align 4, !tbaa !47
  %49 = getelementptr inbounds nuw %struct.lv_area_t, ptr %9, i32 0, i32 0
  store i32 %48, ptr %49, align 4, !tbaa !48
  %50 = load ptr, ptr %6, align 8, !tbaa !3
  %51 = getelementptr inbounds nuw %struct.lv_point_t, ptr %50, i32 0, i32 1
  %52 = load i32, ptr %51, align 4, !tbaa !49
  %53 = getelementptr inbounds nuw %struct.lv_area_t, ptr %9, i32 0, i32 1
  store i32 %52, ptr %53, align 4, !tbaa !50
  %54 = getelementptr inbounds nuw %struct.lv_area_t, ptr %9, i32 0, i32 0
  %55 = load i32, ptr %54, align 4, !tbaa !48
  %56 = getelementptr inbounds nuw %struct.lv_font_glyph_dsc_t, ptr %8, i32 0, i32 1
  %57 = load i16, ptr %56, align 8, !tbaa !51
  %58 = zext i16 %57 to i32
  %59 = add nsw i32 %55, %58
  %60 = getelementptr inbounds nuw %struct.lv_area_t, ptr %9, i32 0, i32 2
  store i32 %59, ptr %60, align 4, !tbaa !55
  %61 = getelementptr inbounds nuw %struct.lv_area_t, ptr %9, i32 0, i32 1
  %62 = load i32, ptr %61, align 4, !tbaa !50
  %63 = load ptr, ptr %7, align 8, !tbaa !59
  %64 = call i32 @lv_font_get_line_height(ptr noundef %63)
  %65 = add nsw i32 %62, %64
  %66 = getelementptr inbounds nuw %struct.lv_area_t, ptr %9, i32 0, i32 3
  store i32 %65, ptr %66, align 4, !tbaa !57
  %67 = getelementptr inbounds nuw %struct.lv_font_glyph_dsc_t, ptr %8, i32 0, i32 1
  %68 = load i16, ptr %67, align 8, !tbaa !51
  %69 = zext i16 %68 to i32
  %70 = sdiv i32 %69, 2
  %71 = load ptr, ptr %5, align 8, !tbaa !3
  %72 = getelementptr inbounds nuw %struct.lv_draw_letter_dsc_t, ptr %71, i32 0, i32 9
  %73 = getelementptr inbounds nuw %struct.lv_point_t, ptr %72, i32 0, i32 0
  store i32 %70, ptr %73, align 8, !tbaa !61
  %74 = load ptr, ptr %7, align 8, !tbaa !59
  %75 = getelementptr inbounds nuw %struct._lv_font_t, ptr %74, i32 0, i32 3
  %76 = load i32, ptr %75, align 8, !tbaa !62
  %77 = load ptr, ptr %7, align 8, !tbaa !59
  %78 = getelementptr inbounds nuw %struct._lv_font_t, ptr %77, i32 0, i32 4
  %79 = load i32, ptr %78, align 4, !tbaa !64
  %80 = sub nsw i32 %76, %79
  %81 = load ptr, ptr %5, align 8, !tbaa !3
  %82 = getelementptr inbounds nuw %struct.lv_draw_letter_dsc_t, ptr %81, i32 0, i32 9
  %83 = getelementptr inbounds nuw %struct.lv_point_t, ptr %82, i32 0, i32 1
  store i32 %80, ptr %83, align 4, !tbaa !65
  call void @llvm.lifetime.start.p0(i64 8, ptr %10) #5
  %84 = load ptr, ptr %4, align 8, !tbaa !44
  %85 = call ptr @lv_draw_add_task(ptr noundef %84, ptr noundef %9)
  store ptr %85, ptr %10, align 8, !tbaa !35
  %86 = call ptr @lv_malloc(i64 noundef 104)
  %87 = load ptr, ptr %10, align 8, !tbaa !35
  %88 = getelementptr inbounds nuw %struct._lv_draw_task_t, ptr %87, i32 0, i32 9
  store ptr %86, ptr %88, align 8, !tbaa !41
  br label %89

89:                                               ; preds = %44
  %90 = load ptr, ptr %10, align 8, !tbaa !35
  %91 = getelementptr inbounds nuw %struct._lv_draw_task_t, ptr %90, i32 0, i32 9
  %92 = load ptr, ptr %91, align 8, !tbaa !41
  %93 = icmp ne ptr %92, null
  br i1 %93, label %100, label %94

94:                                               ; preds = %89
  br label %95

95:                                               ; preds = %94
  br label %96

96:                                               ; preds = %95
  br label %97

97:                                               ; preds = %96
  br label %98

98:                                               ; preds = %99, %97
  br label %99

99:                                               ; preds = %98
  br label %98

100:                                              ; preds = %89
  br label %101

101:                                              ; preds = %100
  br label %102

102:                                              ; preds = %101
  %103 = load ptr, ptr %10, align 8, !tbaa !35
  %104 = getelementptr inbounds nuw %struct._lv_draw_task_t, ptr %103, i32 0, i32 9
  %105 = load ptr, ptr %104, align 8, !tbaa !41
  %106 = load ptr, ptr %5, align 8, !tbaa !3
  %107 = call ptr @lv_memcpy(ptr noundef %105, ptr noundef %106, i64 noundef 104)
  %108 = load ptr, ptr %10, align 8, !tbaa !35
  %109 = getelementptr inbounds nuw %struct._lv_draw_task_t, ptr %108, i32 0, i32 1
  store i32 4, ptr %109, align 8, !tbaa !37
  %110 = load ptr, ptr %4, align 8, !tbaa !44
  %111 = load ptr, ptr %10, align 8, !tbaa !35
  call void @lv_draw_finalize_task_creation(ptr noundef %110, ptr noundef %111)
  call void @llvm.lifetime.end.p0(i64 8, ptr %10) #5
  call void @llvm.lifetime.end.p0(i64 16, ptr %9) #5
  call void @llvm.lifetime.end.p0(i64 48, ptr %8) #5
  call void @llvm.lifetime.end.p0(i64 8, ptr %7) #5
  br label %112

112:                                              ; preds = %102, %24, %16
  ret void
}