; Function Attrs: nounwind uwtable
define void @lv_draw_letter(ptr noundef %0, ptr noundef %1, ptr noundef readonly captures(none) %2) local_unnamed_addr #0 {
  %4 = alloca %struct.lv_font_glyph_dsc_t, align 8
  %5 = alloca %struct.lv_area_t, align 4
  %6 = getelementptr inbounds nuw i8, ptr %1, i64 96
  %7 = load i8, ptr %6, align 8, !tbaa !3
  %8 = icmp ult i8 %7, 3
  br i1 %8, label %50, label %9

9:                                                ; preds = %3
  %10 = getelementptr inbounds nuw i8, ptr %1, i64 56
  %11 = load ptr, ptr %10, align 8, !tbaa !16
  %12 = icmp eq ptr %11, null
  br i1 %12, label %50, label %13

13:                                               ; preds = %9
  call void @llvm.lifetime.start.p0(i64 48, ptr nonnull %4) #6
  %14 = getelementptr inbounds nuw i8, ptr %1, i64 48
  %15 = load i32, ptr %14, align 8, !tbaa !52
  %16 = call zeroext i1 @lv_font_get_glyph_dsc(ptr noundef nonnull %11, ptr noundef nonnull %4, i32 noundef %15, i32 noundef 0) #6
  %17 = load ptr, ptr %4, align 8, !tbaa !48
  %.not = icmp eq ptr %17, null
  br i1 %.not, label %18, label %20

18:                                               ; preds = %13
  %19 = load ptr, ptr %10, align 8, !tbaa !16
  br label %20

20:                                               ; preds = %13, %18
  %21 = phi ptr [ %19, %18 ], [ %17, %13 ]
  call void @llvm.lifetime.start.p0(i64 16, ptr nonnull %5) #6
  %22 = load i32, ptr %2, align 4, !tbaa !39
  store i32 %22, ptr %5, align 4, !tbaa !40
  %23 = getelementptr inbounds nuw i8, ptr %2, i64 4
  %24 = load i32, ptr %23, align 4, !tbaa !41
  %25 = getelementptr inbounds nuw i8, ptr %5, i64 4
  store i32 %24, ptr %25, align 4, !tbaa !42
  %26 = getelementptr inbounds nuw i8, ptr %4, i64 8
  %27 = load i16, ptr %26, align 8, !tbaa !43
  %28 = zext i16 %27 to i32
  %29 = add nsw i32 %22, %28
  %30 = getelementptr inbounds nuw i8, ptr %5, i64 8
  store i32 %29, ptr %30, align 4, !tbaa !47
  %31 = call i32 @lv_font_get_line_height(ptr noundef %21) #6
  %32 = add nsw i32 %31, %24
  %33 = getelementptr inbounds nuw i8, ptr %5, i64 12
  store i32 %32, ptr %33, align 4, !tbaa !49
  %34 = load i16, ptr %26, align 8, !tbaa !43
  %35 = lshr i16 %34, 1
  %36 = zext nneg i16 %35 to i32
  %37 = getelementptr inbounds nuw i8, ptr %1, i64 88
  store i32 %36, ptr %37, align 8, !tbaa !53
  %38 = getelementptr inbounds nuw i8, ptr %21, i64 24
  %39 = load i32, ptr %38, align 8, !tbaa !54
  %40 = getelementptr inbounds nuw i8, ptr %21, i64 28
  %41 = load i32, ptr %40, align 4, !tbaa !56
  %42 = sub nsw i32 %39, %41
  %43 = getelementptr inbounds nuw i8, ptr %1, i64 92
  store i32 %42, ptr %43, align 4, !tbaa !57
  %44 = call ptr @lv_draw_add_task(ptr noundef %0, ptr noundef nonnull %5) #6
  %45 = call ptr @lv_malloc(i64 noundef 104) #6
  %46 = getelementptr inbounds nuw i8, ptr %44, i64 104
  store ptr %45, ptr %46, align 8, !tbaa !36
  %.not23 = icmp eq ptr %45, null
  br i1 %.not23, label %.preheader, label %47

.preheader:                                       ; preds = %20, %.preheader
  br label %.preheader

47:                                               ; preds = %20
  %48 = call ptr @lv_memcpy(ptr noundef nonnull %45, ptr noundef nonnull %1, i64 noundef 104) #6
  %49 = getelementptr inbounds nuw i8, ptr %44, i64 8
  store i32 4, ptr %49, align 8, !tbaa !31
  call void @lv_draw_finalize_task_creation(ptr noundef %0, ptr noundef nonnull %44) #6
  call void @llvm.lifetime.end.p0(i64 16, ptr nonnull %5) #6
  call void @llvm.lifetime.end.p0(i64 48, ptr nonnull %4) #6
  br label %50

50:                                               ; preds = %9, %3, %47
  ret void
}